target datalayout = "e-m:e-p270:32:32-p271:32:32-p272:64:64-i64:64-i128:128-f80:128-n8:16:32:64-S128"
target triple = "x86_64-unknown-linux-gnu"

%"class.facebook::velox::common::Tokenizer" = type { %"class.std::__cxx11::basic_string", %"class.std::shared_ptr", i32, i32, i8, %"class.std::unique_ptr" }
%"class.std::__cxx11::basic_string" = type { %"struct.std::__cxx11::basic_string<char>::_Alloc_hider", i64, %union.anon }
%"struct.std::__cxx11::basic_string<char>::_Alloc_hider" = type { ptr }
%union.anon = type { i64, [8 x i8] }
%"class.std::shared_ptr" = type { %"class.std::__shared_ptr" }
%"class.std::__shared_ptr" = type { ptr, %"class.std::__shared_count" }
%"class.std::__shared_count" = type { ptr }
%"class.std::unique_ptr" = type { %"struct.std::__uniq_ptr_data" }
%"struct.std::__uniq_ptr_data" = type { %"class.std::__uniq_ptr_impl" }
%"class.std::__uniq_ptr_impl" = type { %"class.std::tuple" }
%"class.std::tuple" = type { %"struct.std::_Tuple_impl" }
%"struct.std::_Tuple_impl" = type { %"struct.std::_Head_base.1" }
%"struct.std::_Head_base.1" = type { ptr }

; Function Attrs: mustprogress nounwind uwtable
define linkonce_odr noundef nonnull align 1 dereferenceable(1) ptr @_ZNSt10_Head_baseILm1ESt14default_deleteIN8facebook5velox6common8Subfield11PathElementEELb1EE7_M_headERS7_(ptr noundef nonnull align 1 dereferenceable(1) %__b) #2 comdat align 2 {
entry:
  %__b.addr = alloca ptr, align 8
  store ptr %__b, ptr %__b.addr, align 8
  %0 = load ptr, ptr %__b.addr, align 8
  ret ptr %0
}

; Function Attrs: mustprogress nounwind uwtable
define linkonce_odr noundef nonnull align 1 dereferenceable(1) ptr @_ZNSt11_Tuple_implILm1EJSt14default_deleteIN8facebook5velox6common8Subfield11PathElementEEEE7_M_headERS7_(ptr noundef nonnull align 1 dereferenceable(1) %__t) #2 comdat align 2 {
entry:
  %__t.addr = alloca ptr, align 8
  store ptr %__t, ptr %__t.addr, align 8
  %0 = load ptr, ptr %__t.addr, align 8
  %call = call noundef nonnull align 1 dereferenceable(1) ptr @_ZNSt10_Head_baseILm1ESt14default_deleteIN8facebook5velox6common8Subfield11PathElementEELb1EE7_M_headERS7_(ptr noundef nonnull align 1 dereferenceable(1) %0) #13
  ret ptr %call
}

; Function Attrs: mustprogress nounwind uwtable
define linkonce_odr noundef nonnull align 8 dereferenceable(8) ptr @_ZNSt10_Head_baseILm0EPN8facebook5velox6common8Subfield11PathElementELb0EE7_M_headERS6_(ptr noundef nonnull align 8 dereferenceable(8) %__b) #2 comdat align 2 {
entry:
  %__b.addr = alloca ptr, align 8
  store ptr %__b, ptr %__b.addr, align 8
  %0 = load ptr, ptr %__b.addr, align 8
  %_M_head_impl = getelementptr inbounds %"struct.std::_Head_base.1", ptr %0, i32 0, i32 0
  ret ptr %_M_head_impl
}

; Function Attrs: mustprogress nounwind uwtable
define linkonce_odr noundef nonnull align 1 dereferenceable(1) ptr @_ZSt12__get_helperILm1ESt14default_deleteIN8facebook5velox6common8Subfield11PathElementEEJEERT0_RSt11_Tuple_implIXT_EJS7_DpT1_EE(ptr noundef nonnull align 1 dereferenceable(1) %__t) #2 comdat {
entry:
  %__t.addr = alloca ptr, align 8
  store ptr %__t, ptr %__t.addr, align 8
  %0 = load ptr, ptr %__t.addr, align 8
  %call = call noundef nonnull align 1 dereferenceable(1) ptr @_ZNSt11_Tuple_implILm1EJSt14default_deleteIN8facebook5velox6common8Subfield11PathElementEEEE7_M_headERS7_(ptr noundef nonnull align 1 dereferenceable(1) %0) #13
  ret ptr %call
}

; Function Attrs: mustprogress nounwind uwtable
define linkonce_odr noundef nonnull align 8 dereferenceable(8) ptr @_ZNSt11_Tuple_implILm0EJPN8facebook5velox6common8Subfield11PathElementESt14default_deleteIS4_EEE7_M_headERS8_(ptr noundef nonnull align 8 dereferenceable(8) %__t) #2 comdat align 2 {
entry:
  %__t.addr = alloca ptr, align 8
  store ptr %__t, ptr %__t.addr, align 8
  %0 = load ptr, ptr %__t.addr, align 8
  %call = call noundef nonnull align 8 dereferenceable(8) ptr @_ZNSt10_Head_baseILm0EPN8facebook5velox6common8Subfield11PathElementELb0EE7_M_headERS6_(ptr noundef nonnull align 8 dereferenceable(8) %0) #13
  ret ptr %call
}

; Function Attrs: noreturn nounwind uwtable
define linkonce_odr hidden void @__clang_call_terminate(ptr noundef %0) #6 comdat {
  %2 = call ptr @__cxa_begin_catch(ptr %0) #13
  call void @_ZSt9terminatev() #16
  unreachable
}

; Function Attrs: mustprogress nounwind uwtable
define linkonce_odr noundef nonnull align 1 dereferenceable(1) ptr @_ZSt3getILm1EJPN8facebook5velox6common8Subfield11PathElementESt14default_deleteIS4_EEERNSt13tuple_elementIXT_ESt5tupleIJDpT0_EEE4typeERSC_(ptr noundef nonnull align 8 dereferenceable(8) %__t) #2 comdat {
entry:
  %__t.addr = alloca ptr, align 8
  store ptr %__t, ptr %__t.addr, align 8
  %0 = load ptr, ptr %__t.addr, align 8
  %call = call noundef nonnull align 1 dereferenceable(1) ptr @_ZSt12__get_helperILm1ESt14default_deleteIN8facebook5velox6common8Subfield11PathElementEEJEERT0_RSt11_Tuple_implIXT_EJS7_DpT1_EE(ptr noundef nonnull align 1 dereferenceable(1) %0) #13
  ret ptr %call
}

; Function Attrs: mustprogress nounwind uwtable
define linkonce_odr noundef nonnull align 8 dereferenceable(8) ptr @_ZSt12__get_helperILm0EPN8facebook5velox6common8Subfield11PathElementEJSt14default_deleteIS4_EEERT0_RSt11_Tuple_implIXT_EJS8_DpT1_EE(ptr noundef nonnull align 8 dereferenceable(8) %__t) #2 comdat {
entry:
  %__t.addr = alloca ptr, align 8
  store ptr %__t, ptr %__t.addr, align 8
  %0 = load ptr, ptr %__t.addr, align 8
  %call = call noundef nonnull align 8 dereferenceable(8) ptr @_ZNSt11_Tuple_implILm0EJPN8facebook5velox6common8Subfield11PathElementESt14default_deleteIS4_EEE7_M_headERS8_(ptr noundef nonnull align 8 dereferenceable(8) %0) #13
  ret ptr %call
}

; Function Attrs: mustprogress nounwind uwtable
define linkonce_odr void @_ZNSt15__uniq_ptr_implIN8facebook5velox6common8Subfield11PathElementESt14default_deleteIS4_EE5resetEPS4_(ptr noundef nonnull align 8 dereferenceable(8) %this, ptr noundef %__p) #2 comdat align 2 personality ptr @__gxx_personality_v0 {
entry:
  %this.addr = alloca ptr, align 8
  %__p.addr = alloca ptr, align 8
  %__old_p = alloca ptr, align 8
  store ptr %this, ptr %this.addr, align 8
  store ptr %__p, ptr %__p.addr, align 8
  %this1 = load ptr, ptr %this.addr, align 8
  %call = call noundef nonnull align 8 dereferenceable(8) ptr @_ZNSt15__uniq_ptr_implIN8facebook5velox6common8Subfield11PathElementESt14default_deleteIS4_EE6_M_ptrEv(ptr noundef nonnull align 8 dereferenceable(8) %this1) #13
  %0 = load ptr, ptr %call, align 8
  store ptr %0, ptr %__old_p, align 8
  %1 = load ptr, ptr %__p.addr, align 8
  %call2 = call noundef nonnull align 8 dereferenceable(8) ptr @_ZNSt15__uniq_ptr_implIN8facebook5velox6common8Subfield11PathElementESt14default_deleteIS4_EE6_M_ptrEv(ptr noundef nonnull align 8 dereferenceable(8) %this1) #13
  store ptr %1, ptr %call2, align 8
  %2 = load ptr, ptr %__old_p, align 8
  %tobool = icmp ne ptr %2, null
  br i1 %tobool, label %if.then, label %if.end

if.then:                                          ; preds = %entry
  %call3 = call noundef nonnull align 1 dereferenceable(1) ptr @_ZNSt15__uniq_ptr_implIN8facebook5velox6common8Subfield11PathElementESt14default_deleteIS4_EE10_M_deleterEv(ptr noundef nonnull align 8 dereferenceable(8) %this1) #13
  %3 = load ptr, ptr %__old_p, align 8
  invoke void @_ZNKSt14default_deleteIN8facebook5velox6common8Subfield11PathElementEEclEPS4_(ptr noundef nonnull align 1 dereferenceable(1) %call3, ptr noundef %3)
          to label %invoke.cont unwind label %terminate.lpad

invoke.cont:                                      ; preds = %if.then
  br label %if.end

if.end:                                           ; preds = %invoke.cont, %entry
  ret void

terminate.lpad:                                   ; preds = %if.then
  %4 = landingpad { ptr, i32 }
          catch ptr null
  %5 = extractvalue { ptr, i32 } %4, 0
  call void @__clang_call_terminate(ptr %5) #16
  unreachable
}

; Function Attrs: mustprogress nounwind uwtable
define linkonce_odr noundef ptr @_ZNSt15__uniq_ptr_implIN8facebook5velox6common8Subfield11PathElementESt14default_deleteIS4_EE7releaseEv(ptr noundef nonnull align 8 dereferenceable(8) %this) #2 comdat align 2 {
entry:
  %this.addr = alloca ptr, align 8
  %__p = alloca ptr, align 8
  store ptr %this, ptr %this.addr, align 8
  %this1 = load ptr, ptr %this.addr, align 8
  %call = call noundef nonnull align 8 dereferenceable(8) ptr @_ZNSt15__uniq_ptr_implIN8facebook5velox6common8Subfield11PathElementESt14default_deleteIS4_EE6_M_ptrEv(ptr noundef nonnull align 8 dereferenceable(8) %this1) #13
  %0 = load ptr, ptr %call, align 8
  store ptr %0, ptr %__p, align 8
  %call2 = call noundef nonnull align 8 dereferenceable(8) ptr @_ZNSt15__uniq_ptr_implIN8facebook5velox6common8Subfield11PathElementESt14default_deleteIS4_EE6_M_ptrEv(ptr noundef nonnull align 8 dereferenceable(8) %this1) #13
  store ptr null, ptr %call2, align 8
  %1 = load ptr, ptr %__p, align 8
  ret ptr %1
}

; Function Attrs: mustprogress nounwind uwtable
define linkonce_odr noundef nonnull align 1 dereferenceable(1) ptr @_ZNSt15__uniq_ptr_implIN8facebook5velox6common8Subfield11PathElementESt14default_deleteIS4_EE10_M_deleterEv(ptr noundef nonnull align 8 dereferenceable(8) %this) #2 comdat align 2 {
entry:
  %this.addr = alloca ptr, align 8
  store ptr %this, ptr %this.addr, align 8
  %this1 = load ptr, ptr %this.addr, align 8
  %_M_t = getelementptr inbounds %"class.std::__uniq_ptr_impl", ptr %this1, i32 0, i32 0
  %call = call noundef nonnull align 1 dereferenceable(1) ptr @_ZSt3getILm1EJPN8facebook5velox6common8Subfield11PathElementESt14default_deleteIS4_EEERNSt13tuple_elementIXT_ESt5tupleIJDpT0_EEE4typeERSC_(ptr noundef nonnull align 8 dereferenceable(8) %_M_t) #13
  ret ptr %call
}

; Function Attrs: mustprogress nounwind uwtable
define linkonce_odr noundef nonnull align 8 dereferenceable(8) ptr @_ZSt3getILm0EJPN8facebook5velox6common8Subfield11PathElementESt14default_deleteIS4_EEERNSt13tuple_elementIXT_ESt5tupleIJDpT0_EEE4typeERSC_(ptr noundef nonnull align 8 dereferenceable(8) %__t) #2 comdat {
entry:
  %__t.addr = alloca ptr, align 8
  store ptr %__t, ptr %__t.addr, align 8
  %0 = load ptr, ptr %__t.addr, align 8
  %call = call noundef nonnull align 8 dereferenceable(8) ptr @_ZSt12__get_helperILm0EPN8facebook5velox6common8Subfield11PathElementEJSt14default_deleteIS4_EEERT0_RSt11_Tuple_implIXT_EJS8_DpT1_EE(ptr noundef nonnull align 8 dereferenceable(8) %0) #13
  ret ptr %call
}

; Function Attrs: mustprogress nounwind uwtable
define linkonce_odr noundef nonnull align 8 dereferenceable(8) ptr @_ZNSt15__uniq_ptr_implIN8facebook5velox6common8Subfield11PathElementESt14default_deleteIS4_EEaSEOS7_(ptr noundef nonnull align 8 dereferenceable(8) %this, ptr noundef nonnull align 8 dereferenceable(8) %__u) #2 comdat align 2 {
entry:
  %this.addr = alloca ptr, align 8
  %__u.addr = alloca ptr, align 8
  store ptr %this, ptr %this.addr, align 8
  store ptr %__u, ptr %__u.addr, align 8
  %this1 = load ptr, ptr %this.addr, align 8
  %0 = load ptr, ptr %__u.addr, align 8
  %call = call noundef ptr @_ZNSt15__uniq_ptr_implIN8facebook5velox6common8Subfield11PathElementESt14default_deleteIS4_EE7releaseEv(ptr noundef nonnull align 8 dereferenceable(8) %0) #13
  call void @_ZNSt15__uniq_ptr_implIN8facebook5velox6common8Subfield11PathElementESt14default_deleteIS4_EE5resetEPS4_(ptr noundef nonnull align 8 dereferenceable(8) %this1, ptr noundef %call) #13
  %1 = load ptr, ptr %__u.addr, align 8
  %call2 = call noundef nonnull align 1 dereferenceable(1) ptr @_ZNSt15__uniq_ptr_implIN8facebook5velox6common8Subfield11PathElementESt14default_deleteIS4_EE10_M_deleterEv(ptr noundef nonnull align 8 dereferenceable(8) %1) #13
  %call3 = call noundef nonnull align 1 dereferenceable(1) ptr @_ZNSt15__uniq_ptr_implIN8facebook5velox6common8Subfield11PathElementESt14default_deleteIS4_EE10_M_deleterEv(ptr noundef nonnull align 8 dereferenceable(8) %this1) #13
  ret ptr %this1
}

; Function Attrs: mustprogress nounwind uwtable
define linkonce_odr void @_ZNKSt14default_deleteIN8facebook5velox6common8Subfield11PathElementEEclEPS4_(ptr noundef nonnull align 1 dereferenceable(1) %this, ptr noundef %__ptr) #2 comdat align 2 {
entry:
  %this.addr = alloca ptr, align 8
  %__ptr.addr = alloca ptr, align 8
  store ptr %this, ptr %this.addr, align 8
  store ptr %__ptr, ptr %__ptr.addr, align 8
  %0 = load ptr, ptr %__ptr.addr, align 8
  %isnull = icmp eq ptr %0, null
  br i1 %isnull, label %delete.end, label %delete.notnull

delete.notnull:                                   ; preds = %entry
  %vtable = load ptr, ptr %0, align 8
  %vfn = getelementptr inbounds ptr, ptr %vtable, i64 1
  %1 = load ptr, ptr %vfn, align 8
  call void %1(ptr noundef nonnull align 8 dereferenceable(8) %0) #13
  br label %delete.end

delete.end:                                       ; preds = %delete.notnull, %entry
  ret void
}

; Function Attrs: mustprogress nounwind uwtable
define linkonce_odr noundef nonnull align 1 dereferenceable(1) ptr @_ZNSt10unique_ptrIN8facebook5velox6common8Subfield11PathElementESt14default_deleteIS4_EE11get_deleterEv(ptr noundef nonnull align 8 dereferenceable(8) %this) #2 comdat align 2 {
entry:
  %this.addr = alloca ptr, align 8
  store ptr %this, ptr %this.addr, align 8
  %this1 = load ptr, ptr %this.addr, align 8
  %_M_t = getelementptr inbounds %"class.std::unique_ptr", ptr %this1, i32 0, i32 0
  %call = call noundef nonnull align 1 dereferenceable(1) ptr @_ZNSt15__uniq_ptr_implIN8facebook5velox6common8Subfield11PathElementESt14default_deleteIS4_EE10_M_deleterEv(ptr noundef nonnull align 8 dereferenceable(8) %_M_t) #13
  ret ptr %call
}

; Function Attrs: mustprogress nounwind uwtable
define linkonce_odr noundef nonnull align 8 dereferenceable(8) ptr @_ZNSt15__uniq_ptr_implIN8facebook5velox6common8Subfield11PathElementESt14default_deleteIS4_EE6_M_ptrEv(ptr noundef nonnull align 8 dereferenceable(8) %this) #2 comdat align 2 {
entry:
  %this.addr = alloca ptr, align 8
  store ptr %this, ptr %this.addr, align 8
  %this1 = load ptr, ptr %this.addr, align 8
  %_M_t = getelementptr inbounds %"class.std::__uniq_ptr_impl", ptr %this1, i32 0, i32 0
  %call = call noundef nonnull align 8 dereferenceable(8) ptr @_ZSt3getILm0EJPN8facebook5velox6common8Subfield11PathElementESt14default_deleteIS4_EEERNSt13tuple_elementIXT_ESt5tupleIJDpT0_EEE4typeERSC_(ptr noundef nonnull align 8 dereferenceable(8) %_M_t) #13
  ret ptr %call
}

; Function Attrs: mustprogress nounwind uwtable
define linkonce_odr noundef nonnull align 8 dereferenceable(8) ptr @_ZNSt15__uniq_ptr_dataIN8facebook5velox6common8Subfield11PathElementESt14default_deleteIS4_ELb1ELb1EEaSEOS7_(ptr noundef nonnull align 8 dereferenceable(8) %this, ptr noundef nonnull align 8 dereferenceable(8) %0) #2 comdat align 2 {
entry:
  %this.addr = alloca ptr, align 8
  %.addr = alloca ptr, align 8
  store ptr %this, ptr %this.addr, align 8
  store ptr %0, ptr %.addr, align 8
  %this1 = load ptr, ptr %this.addr, align 8
  %1 = load ptr, ptr %.addr, align 8
  %call = call noundef nonnull align 8 dereferenceable(8) ptr @_ZNSt15__uniq_ptr_implIN8facebook5velox6common8Subfield11PathElementESt14default_deleteIS4_EEaSEOS7_(ptr noundef nonnull align 8 dereferenceable(8) %this1, ptr noundef nonnull align 8 dereferenceable(8) %1) #13
  ret ptr %this1
}

; Function Attrs: mustprogress nounwind uwtable
define linkonce_odr void @_ZNSt10unique_ptrIN8facebook5velox6common8Subfield11PathElementESt14default_deleteIS4_EED2Ev(ptr noundef nonnull align 8 dereferenceable(8) %this) unnamed_addr #2 comdat align 2 {
entry:
  %this.addr = alloca ptr, align 8
  %__ptr = alloca ptr, align 8
  store ptr %this, ptr %this.addr, align 8
  %this1 = load ptr, ptr %this.addr, align 8
  %_M_t = getelementptr inbounds %"class.std::unique_ptr", ptr %this1, i32 0, i32 0
  %call = call noundef nonnull align 8 dereferenceable(8) ptr @_ZNSt15__uniq_ptr_implIN8facebook5velox6common8Subfield11PathElementESt14default_deleteIS4_EE6_M_ptrEv(ptr noundef nonnull align 8 dereferenceable(8) %_M_t) #13
  store ptr %call, ptr %__ptr, align 8
  %0 = load ptr, ptr %__ptr, align 8
  %1 = load ptr, ptr %0, align 8
  %cmp = icmp ne ptr %1, null
  br i1 %cmp, label %if.then, label %if.end

if.then:                                          ; preds = %entry
  %call2 = call noundef nonnull align 1 dereferenceable(1) ptr @_ZNSt10unique_ptrIN8facebook5velox6common8Subfield11PathElementESt14default_deleteIS4_EE11get_deleterEv(ptr noundef nonnull align 8 dereferenceable(8) %this1) #13
  %2 = load ptr, ptr %__ptr, align 8
  %3 = load ptr, ptr %2, align 8
  call void @_ZNKSt14default_deleteIN8facebook5velox6common8Subfield11PathElementEEclEPS4_(ptr noundef nonnull align 1 dereferenceable(1) %call2, ptr noundef %3)
  br label %if.end

if.end:                                           ; preds = %if.then, %entry
  %4 = load ptr, ptr %__ptr, align 8
  store ptr null, ptr %4, align 8
  ret void
}

; Function Attrs: mustprogress nounwind uwtable
define linkonce_odr noundef nonnull align 8 dereferenceable(8) ptr @_ZNSt10unique_ptrIN8facebook5velox6common8Subfield11PathElementESt14default_deleteIS4_EEaSEOS7_(ptr noundef nonnull align 8 dereferenceable(8) %this, ptr noundef nonnull align 8 dereferenceable(8) %0) #2 comdat align 2 {
entry:
  %this.addr = alloca ptr, align 8
  %.addr = alloca ptr, align 8
  store ptr %this, ptr %this.addr, align 8
  store ptr %0, ptr %.addr, align 8
  %this1 = load ptr, ptr %this.addr, align 8
  %_M_t = getelementptr inbounds %"class.std::unique_ptr", ptr %this1, i32 0, i32 0
  %1 = load ptr, ptr %.addr, align 8
  %_M_t2 = getelementptr inbounds %"class.std::unique_ptr", ptr %1, i32 0, i32 0
  %call = call noundef nonnull align 8 dereferenceable(8) ptr @_ZNSt15__uniq_ptr_dataIN8facebook5velox6common8Subfield11PathElementESt14default_deleteIS4_ELb1ELb1EEaSEOS7_(ptr noundef nonnull align 8 dereferenceable(8) %_M_t, ptr noundef nonnull align 8 dereferenceable(8) %_M_t2) #13
  ret ptr %this1
}

; Function Attrs: mustprogress uwtable
define noundef zeroext i1 @_ZN8facebook5velox6common9Tokenizer16tryToComputeNextEv(ptr noundef nonnull align 8 dereferenceable(72) %this) #0 align 2 {
entry:
  %retval = alloca i1, align 1
  %this.addr = alloca ptr, align 8
  %ref.tmp = alloca %"class.std::unique_ptr", align 8
  store ptr %this, ptr %this.addr, align 8
  %this1 = load ptr, ptr %this.addr, align 8
  %state = getelementptr inbounds %"class.facebook::velox::common::Tokenizer", ptr %this1, i32 0, i32 3
  store i32 3, ptr %state, align 4
  call void @_ZN8facebook5velox6common9Tokenizer11computeNextEv(ptr sret(%"class.std::unique_ptr") align 8 %ref.tmp, ptr noundef nonnull align 8 dereferenceable(72) %this1)
  %next_ = getelementptr inbounds %"class.facebook::velox::common::Tokenizer", ptr %this1, i32 0, i32 5
  %call = call noundef nonnull align 8 dereferenceable(8) ptr @_ZNSt10unique_ptrIN8facebook5velox6common8Subfield11PathElementESt14default_deleteIS4_EEaSEOS7_(ptr noundef nonnull align 8 dereferenceable(8) %next_, ptr noundef nonnull align 8 dereferenceable(8) %ref.tmp) #13
  call void @_ZNSt10unique_ptrIN8facebook5velox6common8Subfield11PathElementESt14default_deleteIS4_EED2Ev(ptr noundef nonnull align 8 dereferenceable(8) %ref.tmp) #13
  %state2 = getelementptr inbounds %"class.facebook::velox::common::Tokenizer", ptr %this1, i32 0, i32 3
  %0 = load i32, ptr %state2, align 4
  %cmp = icmp ne i32 %0, 2
  br i1 %cmp, label %if.then, label %if.end

if.then:                                          ; preds = %entry
  %state3 = getelementptr inbounds %"class.facebook::velox::common::Tokenizer", ptr %this1, i32 0, i32 3
  store i32 0, ptr %state3, align 4
  store i1 true, ptr %retval, align 1
  br label %return

if.end:                                           ; preds = %entry
  store i1 false, ptr %retval, align 1
  br label %return

return:                                           ; preds = %if.end, %if.then
  %1 = load i1, ptr %retval, align 1
  ret i1 %1
}