; Function Attrs: mustprogress uwtable
define noundef zeroext i1 @_ZN8facebook5velox6common9Tokenizer16tryToComputeNextEv(ptr noundef nonnull align 8 dereferenceable(72) %this) local_unnamed_addr #0 align 2 personality ptr @__gxx_personality_v0 {
entry:
  %ref.tmp = alloca %"class.std::unique_ptr", align 8
  %state = getelementptr inbounds i8, ptr %this, i64 52
  store i32 3, ptr %state, align 4
  call void @_ZN8facebook5velox6common9Tokenizer11computeNextEv(ptr nonnull sret(%"class.std::unique_ptr") align 8 %ref.tmp, ptr noundef nonnull align 8 dereferenceable(72) %this)
  %next_ = getelementptr inbounds i8, ptr %this, i64 64
  %0 = load ptr, ptr %ref.tmp, align 8
  %1 = load ptr, ptr %next_, align 8
  store ptr %0, ptr %next_, align 8
  %tobool.not.i.i.i.i = icmp eq ptr %1, null
  br i1 %tobool.not.i.i.i.i, label %_ZNSt10unique_ptrIN8facebook5velox6common8Subfield11PathElementESt14default_deleteIS4_EED2Ev.exit, label %_ZNKSt14default_deleteIN8facebook5velox6common8Subfield11PathElementEEclEPS4_.exit.i.i.i.i

_ZNKSt14default_deleteIN8facebook5velox6common8Subfield11PathElementEEclEPS4_.exit.i.i.i.i: ; preds = %entry
  %vtable.i.i.i.i.i = load ptr, ptr %1, align 8
  %vfn.i.i.i.i.i = getelementptr inbounds i8, ptr %vtable.i.i.i.i.i, i64 8
  %2 = load ptr, ptr %vfn.i.i.i.i.i, align 8
  tail call void %2(ptr noundef nonnull align 8 dereferenceable(8) %1) #20
  br label %_ZNSt10unique_ptrIN8facebook5velox6common8Subfield11PathElementESt14default_deleteIS4_EED2Ev.exit

_ZNSt10unique_ptrIN8facebook5velox6common8Subfield11PathElementESt14default_deleteIS4_EED2Ev.exit: ; preds = %_ZNKSt14default_deleteIN8facebook5velox6common8Subfield11PathElementEEclEPS4_.exit.i.i.i.i, %entry
  %3 = load i32, ptr %state, align 4
  %cmp.not = icmp ne i32 %3, 2
  br i1 %cmp.not, label %if.then, label %return

if.then:                                          ; preds = %_ZNSt10unique_ptrIN8facebook5velox6common8Subfield11PathElementESt14default_deleteIS4_EED2Ev.exit
  store i32 0, ptr %state, align 4
  br label %return

return:                                           ; preds = %_ZNSt10unique_ptrIN8facebook5velox6common8Subfield11PathElementESt14default_deleteIS4_EED2Ev.exit, %if.then
  ret i1 %cmp.not
}